; Function Attrs: mustprogress nounwind uwtable
define hidden noundef ptr @_ZNK13LoadStoreNode5ValueEP8PhaseGVN(ptr noundef nonnull align 8 dereferenceable(73) %0, ptr nocapture noundef readonly %1) unnamed_addr #1 align 2 {
  %3 = getelementptr inbounds i8, ptr %0, i64 8
  %4 = load ptr, ptr %3, align 8
  %5 = load ptr, ptr %4, align 8
  %.not = icmp eq ptr %5, null
  %.pre = load ptr, ptr @_ZN4Type3TOPE, align 8
  br i1 %.not, label %49, label %6

6:                                                ; preds = %2
  %7 = getelementptr inbounds i8, ptr %1, i64 40
  %8 = load ptr, ptr %7, align 8
  %9 = getelementptr inbounds i8, ptr %5, i64 40
  %10 = load i32, ptr %9, align 8
  %11 = getelementptr inbounds i8, ptr %8, i64 16
  %12 = load ptr, ptr %11, align 8
  %13 = zext i32 %10 to i64
  %14 = getelementptr inbounds ptr, ptr %12, i64 %13
  %15 = load ptr, ptr %14, align 8
  %16 = icmp eq ptr %15, %.pre
  br i1 %16, label %49, label %17

17:                                               ; preds = %6
  %18 = getelementptr inbounds i8, ptr %4, i64 8
  %19 = load ptr, ptr %18, align 8
  %20 = getelementptr inbounds i8, ptr %19, i64 40
  %21 = load i32, ptr %20, align 8
  %22 = zext i32 %21 to i64
  %23 = getelementptr inbounds ptr, ptr %12, i64 %22
  %24 = load ptr, ptr %23, align 8
  %25 = icmp eq ptr %24, %.pre
  br i1 %25, label %49, label %26

26:                                               ; preds = %17
  %27 = getelementptr inbounds i8, ptr %4, i64 16
  %28 = load ptr, ptr %27, align 8
  %29 = getelementptr inbounds i8, ptr %28, i64 40
  %30 = load i32, ptr %29, align 8
  %31 = zext i32 %30 to i64
  %32 = getelementptr inbounds ptr, ptr %12, i64 %31
  %33 = load ptr, ptr %32, align 8
  %34 = icmp eq ptr %33, %.pre
  br i1 %34, label %49, label %35

35:                                               ; preds = %26
  %36 = getelementptr inbounds i8, ptr %4, i64 24
  %37 = load ptr, ptr %36, align 8
  %38 = getelementptr inbounds i8, ptr %37, i64 40
  %39 = load i32, ptr %38, align 8
  %40 = zext i32 %39 to i64
  %41 = getelementptr inbounds ptr, ptr %12, i64 %40
  %42 = load ptr, ptr %41, align 8
  %43 = icmp eq ptr %42, %.pre
  br i1 %43, label %49, label %44

44:                                               ; preds = %35
  %45 = load ptr, ptr %0, align 8
  %46 = getelementptr inbounds i8, ptr %45, i64 40
  %47 = load ptr, ptr %46, align 8
  %48 = tail call noundef ptr %47(ptr noundef nonnull align 8 dereferenceable(73) %0) #13
  br label %49

49:                                               ; preds = %2, %6, %35, %26, %17, %44
  %.0 = phi ptr [ %48, %44 ], [ %.pre, %17 ], [ %.pre, %26 ], [ %.pre, %35 ], [ %.pre, %6 ], [ %.pre, %2 ]
  ret ptr %.0
}